; Function Attrs: mustprogress uwtable
define hidden void @_Z9MyEllipseN2cv3MatEd(ptr noundef %0, double noundef %1) local_unnamed_addr #4 personality ptr @__gxx_personality_v0 {
  %3 = alloca %"class.cv::_InputOutputArray", align 8
  %4 = alloca %"class.cv::Scalar_", align 8
  %5 = getelementptr inbounds i8, ptr %3, i64 8
  %6 = getelementptr inbounds i8, ptr %3, i64 16
  store i64 0, ptr %6, align 8
  store i32 50397184, ptr %3, align 8
  store ptr %0, ptr %5, align 8
  store double 2.550000e+02, ptr %4, align 8
  %7 = getelementptr inbounds i8, ptr %4, i64 8
  call void @llvm.memset.p0.i64(ptr noundef nonnull align 8 dereferenceable(24) %7, i8 0, i64 24, i1 false)
  call void @_ZN2cv7ellipseERKNS_17_InputOutputArrayENS_6Point_IiEENS_5Size_IiEEdddRKNS_7Scalar_IdEEiii(ptr noundef nonnull align 8 dereferenceable(24) %3, i64 858993459400, i64 107374182500, double noundef %1, double noundef 0.000000e+00, double noundef 3.600000e+02, ptr noundef nonnull align 8 dereferenceable(32) %4, i32 noundef 2, i32 noundef 8, i32 noundef 0)
  ret void
}